; ModuleID = 'source-C-CXX/53/1846.cpp'
source_filename = "source-C-CXX/53/1846.cpp"
target datalayout = "e-m:e-p270:32:32-p271:32:32-p272:64:64-i64:64-f80:128-n8:16:32:64-S128"
target triple = "x86_64-pc-linux-gnu"

%"class.std::ios_base::Init" = type { i8 }
%"class.std::basic_istream" = type { i32 (...)**, i64, %"class.std::basic_ios" }
%"class.std::basic_ios" = type { %"class.std::ios_base", %"class.std::basic_ostream"*, i8, i8, %"class.std::basic_streambuf"*, %"class.std::ctype"*, %"class.std::num_put"*, %"class.std::num_get"* }
%"class.std::ios_base" = type { i32 (...)**, i64, i64, i32, i32, i32, %"struct.std::ios_base::_Callback_list"*, %"struct.std::ios_base::_Words", [8 x %"struct.std::ios_base::_Words"], i32, %"struct.std::ios_base::_Words"*, %"class.std::locale" }
%"struct.std::ios_base::_Callback_list" = type { %"struct.std::ios_base::_Callback_list"*, void (i32, %"class.std::ios_base"*, i32)*, i32, i32 }
%"struct.std::ios_base::_Words" = type { i8*, i64 }
%"class.std::locale" = type { %"class.std::locale::_Impl"* }
%"class.std::locale::_Impl" = type { i32, %"class.std::locale::facet"**, i64, %"class.std::locale::facet"**, i8** }
%"class.std::locale::facet" = type <{ i32 (...)**, i32, [4 x i8] }>
%"class.std::basic_ostream" = type { i32 (...)**, %"class.std::basic_ios" }
%"class.std::basic_streambuf" = type { i32 (...)**, i8*, i8*, i8*, i8*, i8*, i8*, %"class.std::locale" }
%"class.std::ctype" = type <{ %"class.std::locale::facet.base", [4 x i8], %struct.__locale_struct*, i8, [7 x i8], i32*, i32*, i16*, i8, [256 x i8], [256 x i8], i8, [6 x i8] }>
%"class.std::locale::facet.base" = type <{ i32 (...)**, i32 }>
%struct.__locale_struct = type { [13 x %struct.__locale_data*], i16*, i32*, i32*, [13 x i8*] }
%struct.__locale_data = type opaque
%"class.std::num_put" = type { %"class.std::locale::facet.base", [4 x i8] }
%"class.std::num_get" = type { %"class.std::locale::facet.base", [4 x i8] }

@_ZStL8__ioinit = internal global %"class.std::ios_base::Init" zeroinitializer, align 1
@__dso_handle = external hidden global i8
@n = dso_local global i32 0, align 4
@k = dso_local global i32 0, align 4
@_ZSt3cin = external global %"class.std::basic_istream", align 8
@_ZSt4cout = external global %"class.std::basic_ostream", align 8
@llvm.global_ctors = appending global [1 x { i32, void ()*, i8* }] [{ i32, void ()*, i8* } { i32 65535, void ()* @_GLOBAL__sub_I_1846.cpp, i8* null }]

declare void @_ZNSt8ios_base4InitC1Ev(%"class.std::ios_base::Init"* nonnull align 1 dereferenceable(1)) unnamed_addr #0

; Function Attrs: nounwind
declare void @_ZNSt8ios_base4InitD1Ev(%"class.std::ios_base::Init"* nonnull align 1 dereferenceable(1)) unnamed_addr #1

; Function Attrs: nofree nounwind
declare i32 @__cxa_atexit(void (i8*)*, i8*, i8*) local_unnamed_addr #2

; Function Attrs: mustprogress nofree nosync nounwind readnone sspstrong uwtable willreturn
define dso_local i32 @_Z1pii(i32 %0, i32 %1) local_unnamed_addr #3 {
  %3 = icmp eq i32 %1, 0
  br i1 %3, label %71, label %4

4:                                                ; preds = %2
  %5 = icmp ult i32 %1, 8
  br i1 %5, label %62, label %6

6:                                                ; preds = %4
  %7 = and i32 %1, -8
  %8 = and i32 %1, 7
  %9 = insertelement <4 x i32> poison, i32 %0, i32 0
  %10 = shufflevector <4 x i32> %9, <4 x i32> poison, <4 x i32> zeroinitializer
  %11 = insertelement <4 x i32> poison, i32 %0, i32 0
  %12 = shufflevector <4 x i32> %11, <4 x i32> poison, <4 x i32> zeroinitializer
  %13 = add i32 %7, -8
  %14 = lshr exact i32 %13, 3
  %15 = add nuw nsw i32 %14, 1
  %16 = and i32 %15, 7
  %17 = icmp ult i32 %13, 56
  br i1 %17, label %42, label %18

18:                                               ; preds = %6
  %19 = and i32 %15, 1073741816
  br label %20

20:                                               ; preds = %20, %18
  %21 = phi <4 x i32> [ <i32 1, i32 1, i32 1, i32 1>, %18 ], [ %38, %20 ]
  %22 = phi <4 x i32> [ <i32 1, i32 1, i32 1, i32 1>, %18 ], [ %39, %20 ]
  %23 = phi i32 [ %19, %18 ], [ %40, %20 ]
  %24 = mul <4 x i32> %21, %10
  %25 = mul <4 x i32> %22, %12
  %26 = mul <4 x i32> %24, %10
  %27 = mul <4 x i32> %25, %12
  %28 = mul <4 x i32> %26, %10
  %29 = mul <4 x i32> %27, %12
  %30 = mul <4 x i32> %28, %10
  %31 = mul <4 x i32> %29, %12
  %32 = mul <4 x i32> %30, %10
  %33 = mul <4 x i32> %31, %12
  %34 = mul <4 x i32> %32, %10
  %35 = mul <4 x i32> %33, %12
  %36 = mul <4 x i32> %34, %10
  %37 = mul <4 x i32> %35, %12
  %38 = mul <4 x i32> %36, %10
  %39 = mul <4 x i32> %37, %12
  %40 = add i32 %23, -8
  %41 = icmp eq i32 %40, 0
  br i1 %41, label %42, label %20, !llvm.loop !5

42:                                               ; preds = %20, %6
  %43 = phi <4 x i32> [ undef, %6 ], [ %38, %20 ]
  %44 = phi <4 x i32> [ undef, %6 ], [ %39, %20 ]
  %45 = phi <4 x i32> [ <i32 1, i32 1, i32 1, i32 1>, %6 ], [ %38, %20 ]
  %46 = phi <4 x i32> [ <i32 1, i32 1, i32 1, i32 1>, %6 ], [ %39, %20 ]
  %47 = icmp eq i32 %16, 0
  br i1 %47, label %56, label %48

48:                                               ; preds = %42, %48
  %49 = phi <4 x i32> [ %52, %48 ], [ %45, %42 ]
  %50 = phi <4 x i32> [ %53, %48 ], [ %46, %42 ]
  %51 = phi i32 [ %54, %48 ], [ %16, %42 ]
  %52 = mul <4 x i32> %49, %10
  %53 = mul <4 x i32> %50, %12
  %54 = add i32 %51, -1
  %55 = icmp eq i32 %54, 0
  br i1 %55, label %56, label %48, !llvm.loop !7

56:                                               ; preds = %48, %42
  %57 = phi <4 x i32> [ %43, %42 ], [ %52, %48 ]
  %58 = phi <4 x i32> [ %44, %42 ], [ %53, %48 ]
  %59 = mul <4 x i32> %58, %57
  %60 = call i32 @llvm.vector.reduce.mul.v4i32(<4 x i32> %59)
  %61 = icmp eq i32 %7, %1
  br i1 %61, label %71, label %62

62:                                               ; preds = %4, %56
  %63 = phi i32 [ %1, %4 ], [ %8, %56 ]
  %64 = phi i32 [ 1, %4 ], [ %60, %56 ]
  br label %65

65:                                               ; preds = %62, %65
  %66 = phi i32 [ %68, %65 ], [ %63, %62 ]
  %67 = phi i32 [ %69, %65 ], [ %64, %62 ]
  %68 = add nsw i32 %66, -1
  %69 = mul nsw i32 %67, %0
  %70 = icmp eq i32 %68, 0
  br i1 %70, label %71, label %65, !llvm.loop !9

71:                                               ; preds = %65, %56, %2
  %72 = phi i32 [ 1, %2 ], [ %60, %56 ], [ %69, %65 ]
  ret i32 %72
}

; Function Attrs: mustprogress norecurse sspstrong uwtable
define dso_local i32 @main() local_unnamed_addr #4 {
  %1 = tail call nonnull align 8 dereferenceable(16) %"class.std::basic_istream"* @_ZNSirsERi(%"class.std::basic_istream"* nonnull align 8 dereferenceable(16) @_ZSt3cin, i32* nonnull align 4 dereferenceable(4) @n)
  %2 = tail call nonnull align 8 dereferenceable(16) %"class.std::basic_istream"* @_ZNSirsERi(%"class.std::basic_istream"* nonnull align 8 dereferenceable(16) %1, i32* nonnull align 4 dereferenceable(4) @k)
  %3 = load i32, i32* @n, align 4, !tbaa !11
  %4 = icmp eq i32 %3, 0
  br i1 %4, label %72, label %5

5:                                                ; preds = %0
  %6 = icmp ult i32 %3, 8
  br i1 %6, label %63, label %7

7:                                                ; preds = %5
  %8 = and i32 %3, -8
  %9 = and i32 %3, 7
  %10 = insertelement <4 x i32> poison, i32 %3, i32 0
  %11 = shufflevector <4 x i32> %10, <4 x i32> poison, <4 x i32> zeroinitializer
  %12 = insertelement <4 x i32> poison, i32 %3, i32 0
  %13 = shufflevector <4 x i32> %12, <4 x i32> poison, <4 x i32> zeroinitializer
  %14 = add i32 %8, -8
  %15 = lshr exact i32 %14, 3
  %16 = add nuw nsw i32 %15, 1
  %17 = and i32 %16, 7
  %18 = icmp ult i32 %14, 56
  br i1 %18, label %43, label %19

19:                                               ; preds = %7
  %20 = and i32 %16, 1073741816
  br label %21

21:                                               ; preds = %21, %19
  %22 = phi <4 x i32> [ <i32 1, i32 1, i32 1, i32 1>, %19 ], [ %39, %21 ]
  %23 = phi <4 x i32> [ <i32 1, i32 1, i32 1, i32 1>, %19 ], [ %40, %21 ]
  %24 = phi i32 [ %20, %19 ], [ %41, %21 ]
  %25 = mul <4 x i32> %22, %11
  %26 = mul <4 x i32> %23, %13
  %27 = mul <4 x i32> %25, %11
  %28 = mul <4 x i32> %26, %13
  %29 = mul <4 x i32> %27, %11
  %30 = mul <4 x i32> %28, %13
  %31 = mul <4 x i32> %29, %11
  %32 = mul <4 x i32> %30, %13
  %33 = mul <4 x i32> %31, %11
  %34 = mul <4 x i32> %32, %13
  %35 = mul <4 x i32> %33, %11
  %36 = mul <4 x i32> %34, %13
  %37 = mul <4 x i32> %35, %11
  %38 = mul <4 x i32> %36, %13
  %39 = mul <4 x i32> %37, %11
  %40 = mul <4 x i32> %38, %13
  %41 = add i32 %24, -8
  %42 = icmp eq i32 %41, 0
  br i1 %42, label %43, label %21, !llvm.loop !15

43:                                               ; preds = %21, %7
  %44 = phi <4 x i32> [ undef, %7 ], [ %39, %21 ]
  %45 = phi <4 x i32> [ undef, %7 ], [ %40, %21 ]
  %46 = phi <4 x i32> [ <i32 1, i32 1, i32 1, i32 1>, %7 ], [ %39, %21 ]
  %47 = phi <4 x i32> [ <i32 1, i32 1, i32 1, i32 1>, %7 ], [ %40, %21 ]
  %48 = icmp eq i32 %17, 0
  br i1 %48, label %57, label %49

49:                                               ; preds = %43, %49
  %50 = phi <4 x i32> [ %53, %49 ], [ %46, %43 ]
  %51 = phi <4 x i32> [ %54, %49 ], [ %47, %43 ]
  %52 = phi i32 [ %55, %49 ], [ %17, %43 ]
  %53 = mul <4 x i32> %50, %11
  %54 = mul <4 x i32> %51, %13
  %55 = add i32 %52, -1
  %56 = icmp eq i32 %55, 0
  br i1 %56, label %57, label %49, !llvm.loop !16

57:                                               ; preds = %49, %43
  %58 = phi <4 x i32> [ %44, %43 ], [ %53, %49 ]
  %59 = phi <4 x i32> [ %45, %43 ], [ %54, %49 ]
  %60 = mul <4 x i32> %59, %58
  %61 = call i32 @llvm.vector.reduce.mul.v4i32(<4 x i32> %60)
  %62 = icmp eq i32 %3, %8
  br i1 %62, label %72, label %63

63:                                               ; preds = %5, %57
  %64 = phi i32 [ %3, %5 ], [ %9, %57 ]
  %65 = phi i32 [ 1, %5 ], [ %61, %57 ]
  br label %66

66:                                               ; preds = %63, %66
  %67 = phi i32 [ %69, %66 ], [ %64, %63 ]
  %68 = phi i32 [ %70, %66 ], [ %65, %63 ]
  %69 = add nsw i32 %67, -1
  %70 = mul nsw i32 %68, %3
  %71 = icmp eq i32 %69, 0
  br i1 %71, label %72, label %66, !llvm.loop !17

72:                                               ; preds = %66, %57, %0
  %73 = phi i32 [ 1, %0 ], [ %61, %57 ], [ %70, %66 ]
  %74 = load i32, i32* @k, align 4, !tbaa !11
  %75 = add nsw i32 %3, -1
  %76 = mul nsw i32 %74, %75
  %77 = sub nsw i32 %73, %76
  %78 = tail call nonnull align 8 dereferenceable(8) %"class.std::basic_ostream"* @_ZNSolsEi(%"class.std::basic_ostream"* nonnull align 8 dereferenceable(8) @_ZSt4cout, i32 %77)
  ret i32 0
}

declare nonnull align 8 dereferenceable(16) %"class.std::basic_istream"* @_ZNSirsERi(%"class.std::basic_istream"* nonnull align 8 dereferenceable(16), i32* nonnull align 4 dereferenceable(4)) local_unnamed_addr #0

declare nonnull align 8 dereferenceable(8) %"class.std::basic_ostream"* @_ZNSolsEi(%"class.std::basic_ostream"* nonnull align 8 dereferenceable(8), i32) local_unnamed_addr #0

; Function Attrs: sspstrong uwtable
define internal void @_GLOBAL__sub_I_1846.cpp() #5 section ".text.startup" {
  tail call void @_ZNSt8ios_base4InitC1Ev(%"class.std::ios_base::Init"* nonnull align 1 dereferenceable(1) @_ZStL8__ioinit)
  %1 = tail call i32 @__cxa_atexit(void (i8*)* bitcast (void (%"class.std::ios_base::Init"*)* @_ZNSt8ios_base4InitD1Ev to void (i8*)*), i8* getelementptr inbounds (%"class.std::ios_base::Init", %"class.std::ios_base::Init"* @_ZStL8__ioinit, i64 0, i32 0), i8* nonnull @__dso_handle) #7
  ret void
}

; Function Attrs: nofree nosync nounwind readnone willreturn
declare i32 @llvm.vector.reduce.mul.v4i32(<4 x i32>) #6


!llvm.module.flags = !{!0, !1, !2, !3}
!llvm.ident = !{!4}

!0 = !{i32 1, !"wchar_size", i32 4}
!1 = !{i32 7, !"PIC Level", i32 2}
!2 = !{i32 7, !"PIE Level", i32 2}
!3 = !{i32 7, !"uwtable", i32 1}
!4 = !{!"clang version 13.0.0"}
!5 = distinct !{!5, !6}
!6 = !{!"llvm.loop.isvectorized", i32 1}
!7 = distinct !{!7, !8}
!8 = !{!"llvm.loop.unroll.disable"}
!9 = distinct !{!9, !10, !6}
!10 = !{!"llvm.loop.unroll.runtime.disable"}
!11 = !{!12, !12, i64 0}
!12 = !{!"int", !13, i64 0}
!13 = !{!"omnipotent char", !14, i64 0}
!14 = !{!"Simple C++ TBAA"}
!15 = distinct !{!15, !6}
!16 = distinct !{!16, !8}
!17 = distinct !{!17, !10, !6}
